target datalayout = "e-m:e-p270:32:32-p271:32:32-p272:64:64-i64:64-i128:128-f80:128-n8:16:32:64-S128"
target triple = "x86_64-pc-linux-gnu"

%"class.std::locale" = type { ptr }

; Function Attrs: mustprogress uwtable
define internal void @_ZN8LightGBM6CommonL14C_stringstreamERNSt7__cxx1118basic_stringstreamIcSt11char_traitsIcESaIcEEE(ptr noundef nonnull align 8 dereferenceable(128) %0) #4 {
  %2 = alloca ptr, align 8
  %3 = alloca %"class.std::locale", align 8
  store ptr %0, ptr %2, align 8, !tbaa !143
  %4 = load ptr, ptr %2, align 8, !tbaa !143
  %5 = load ptr, ptr %4, align 8, !tbaa !11
  %6 = getelementptr i8, ptr %5, i64 -24
  %7 = load i64, ptr %6, align 8
  %8 = getelementptr inbounds i8, ptr %4, i64 %7
  %9 = call noundef nonnull align 8 dereferenceable(8) ptr @_ZNSt6locale7classicEv()
  call void @_ZNSt9basic_iosIcSt11char_traitsIcEE5imbueERKSt6locale(ptr dead_on_unwind writable sret(%"class.std::locale") align 8 %3, ptr noundef nonnull align 8 dereferenceable(264) %8, ptr noundef nonnull align 8 dereferenceable(8) %9)
  call void @_ZNSt6localeD1Ev(ptr noundef nonnull align 8 dereferenceable(8) %3) #3
  ret void
}