; Function Attrs: mustprogress uwtable
define internal fastcc void @_ZN8LightGBM6CommonL14C_stringstreamERNSt7__cxx1118basic_stringstreamIcSt11char_traitsIcESaIcEEE(ptr noundef nonnull align 8 dereferenceable(128) %0) unnamed_addr #3 {
  %2 = alloca %"class.std::locale", align 8
  %3 = load ptr, ptr %0, align 8, !tbaa !4
  %4 = getelementptr i8, ptr %3, i64 -24
  %5 = load i64, ptr %4, align 8
  %6 = getelementptr inbounds i8, ptr %0, i64 %5
  %7 = tail call noundef nonnull align 8 dereferenceable(8) ptr @_ZNSt6locale7classicEv()
  call void @_ZNSt9basic_iosIcSt11char_traitsIcEE5imbueERKSt6locale(ptr dead_on_unwind nonnull writable sret(%"class.std::locale") align 8 %2, ptr noundef nonnull align 8 dereferenceable(264) %6, ptr noundef nonnull align 8 dereferenceable(8) %7)
  call void @_ZNSt6localeD1Ev(ptr noundef nonnull align 8 dereferenceable(8) %2) #21
  ret void
}